; Function Attrs: mustprogress uwtable
define void @_ZN19PacketRangeGroupBox26on_displayedButton_toggledEb(ptr noundef nonnull align 8 dereferenceable(60) %0, i1 noundef zeroext %1) local_unnamed_addr #0 align 2 {
  br i1 %1, label %3, label %9

3:                                                ; preds = %2
  %4 = getelementptr inbounds i8, ptr %0, i64 48
  %5 = load ptr, ptr %4, align 8
  %.not = icmp eq ptr %5, null
  br i1 %.not, label %8, label %6

6:                                                ; preds = %3
  %7 = getelementptr inbounds i8, ptr %5, i64 4
  store i32 1, ptr %7, align 4
  br label %8

8:                                                ; preds = %6, %3
  tail call void @_ZN19PacketRangeGroupBox12updateCountsEv(ptr noundef nonnull align 8 dereferenceable(60) %0)
  br label %9

9:                                                ; preds = %8, %2
  ret void
}